	.file	"functions.c"
	.text
	.section	.rodata
	.align 8
.LC0:
	.string	"the bestest program in the entire universe"
.LC1:
	.string	"Buckle up as we run %s!\n"
	.text
	.globl	main
	.type	main, @function
main:
.LFB0:
	.cfi_startproc
	pushq	%rbp
	.cfi_def_cfa_offset 16
	.cfi_offset 6, -16
	movq	%rsp, %rbp
	.cfi_def_cfa_register 6
	subq	$16, %rsp
	leaq	.LC0(%rip), %rax
	movq	%rax, -8(%rbp)
	movq	-8(%rbp), %rax
	movq	%rax, %rsi
	leaq	.LC1(%rip), %rdi
	movl	$0, %eax
	call	printf@PLT
	movl	$0, %eax
	call	doTheThing
	movl	$0, %eax
	leave
	.cfi_def_cfa 7, 8
	ret
	.cfi_endproc
.LFE0:
	.size	main, .-main
	.section	.rodata
	.align 8
.LC2:
	.string	"What is your favorite number? (It better be an integer!) "
.LC3:
	.string	"%d"
	.align 8
.LC4:
	.string	"\nOh yeah? Well, I think %d is better! >:P\n"
	.text
	.globl	doTheThing
	.type	doTheThing, @function
doTheThing:
.LFB1:
	.cfi_startproc
	pushq	%rbp
	.cfi_def_cfa_offset 16
	.cfi_offset 6, -16
	movq	%rsp, %rbp
	.cfi_def_cfa_register 6
	subq	$16, %rsp
	leaq	.LC2(%rip), %rdi
	movl	$0, %eax
	call	printf@PLT
	leaq	-8(%rbp), %rax
	movq	%rax, %rsi
	leaq	.LC3(%rip), %rdi
	movl	$0, %eax
	call	__isoc99_scanf@PLT
	movl	-8(%rbp), %eax
	movl	%eax, %edi
	call	add2
	movl	%eax, -4(%rbp)
	movl	-4(%rbp), %eax
	movl	%eax, %esi
	leaq	.LC4(%rip), %rdi
	movl	$0, %eax
	call	printf@PLT
	nop
	leave
	.cfi_def_cfa 7, 8
	ret
	.cfi_endproc
.LFE1:
	.size	doTheThing, .-doTheThing
	.globl	add2
	.type	add2, @function
add2:
.LFB2:
	.cfi_startproc
	pushq	%rbp
	.cfi_def_cfa_offset 16
	.cfi_offset 6, -16
	movq	%rsp, %rbp
	.cfi_def_cfa_register 6
	movl	%edi, -4(%rbp)
	movl	-4(%rbp), %eax
	addl	$5, %eax
	popq	%rbp
	.cfi_def_cfa 7, 8
	ret
	.cfi_endproc
.LFE2:
	.size	add2, .-add2
	.ident	"GCC: (Debian 10.2.1-6) 10.2.1 20210110"
	.section	.note.GNU-stack,"",@progbits
